; Function Attrs: mustprogress nounwind uwtable
define hidden void @_ZN16ThreadStackTrace15add_stack_frameEP10javaVFrame(ptr nocapture noundef nonnull align 8 dereferenceable(32) %0, ptr noundef %1) local_unnamed_addr #0 align 2 {
  %3 = tail call noundef ptr @_Z12AllocateHeapm8MEMFLAGSN17AllocFailStrategy13AllocFailEnumE(i64 noundef 32, i8 noundef zeroext 9, i32 noundef 0) #12
  %4 = getelementptr inbounds i8, ptr %0, i64 12
  %5 = load i8, ptr %4, align 4
  %6 = trunc i8 %5 to i1
  tail call void @_ZN14StackFrameInfoC2EP10javaVFrameb(ptr noundef nonnull align 8 dereferenceable(32) %3, ptr noundef %1, i1 noundef zeroext %6)
  %7 = getelementptr inbounds i8, ptr %0, i64 16
  %8 = load ptr, ptr %7, align 8
  %9 = load i32, ptr %8, align 8
  %10 = getelementptr inbounds i8, ptr %8, i64 4
  %11 = load i32, ptr %10, align 4
  %12 = icmp eq i32 %9, %11
  br i1 %12, label %13, label %_ZN26GrowableArrayWithAllocatorIP14StackFrameInfo13GrowableArrayIS1_EE6appendERKS1_.exit

13:                                               ; preds = %2
  %14 = add nsw i32 %9, 1
  %15 = icmp sgt i32 %9, -1
  %16 = xor i32 %9, -2147483648
  %17 = and i32 %16, %14
  %18 = icmp eq i32 %17, 0
  %19 = and i1 %15, %18
  %20 = tail call range(i32 0, 33) i32 @llvm.ctlz.i32(i32 %14, i1 true)
  %21 = sub nuw nsw i32 32, %20
  %22 = shl nuw i32 1, %21
  %.0.i.i.i.i = select i1 %19, i32 %14, i32 %22
  tail call void @_ZN26GrowableArrayWithAllocatorIP14StackFrameInfo13GrowableArrayIS1_EE9expand_toEi(ptr noundef nonnull align 8 dereferenceable(16) %8, i32 noundef %.0.i.i.i.i)
  %.pre.i = load i32, ptr %8, align 8
  br label %_ZN26GrowableArrayWithAllocatorIP14StackFrameInfo13GrowableArrayIS1_EE6appendERKS1_.exit

_ZN26GrowableArrayWithAllocatorIP14StackFrameInfo13GrowableArrayIS1_EE6appendERKS1_.exit: ; preds = %2, %13
  %23 = phi i32 [ %.pre.i, %13 ], [ %9, %2 ]
  %24 = add nsw i32 %23, 1
  store i32 %24, ptr %8, align 8
  %25 = getelementptr inbounds i8, ptr %8, i64 8
  %26 = load ptr, ptr %25, align 8
  %27 = sext i32 %23 to i64
  %28 = getelementptr inbounds ptr, ptr %26, i64 %27
  store ptr %3, ptr %28, align 8
  %29 = getelementptr inbounds i8, ptr %0, i64 8
  %30 = load i32, ptr %29, align 8
  %31 = add nsw i32 %30, 1
  store i32 %31, ptr %29, align 8
  ret void
}